; Function Attrs: mustprogress uwtable
define void @_ZN4LIEF5MachO13ThreadCommandC2ERKNS0_7details14thread_commandENS0_9CPU_TYPESE(ptr noundef nonnull align 8 dereferenceable(96) %0, ptr nocapture noundef nonnull readonly align 4 dereferenceable(16) %1, i32 noundef %2) unnamed_addr #1 align 2 {
  %4 = load i32, ptr %1, align 4
  %5 = zext i32 %4 to i64
  %6 = getelementptr inbounds i8, ptr %1, i64 4
  %7 = load i32, ptr %6, align 4
  tail call void @_ZN4LIEF5MachO11LoadCommandC2ENS0_18LOAD_COMMAND_TYPESEj(ptr noundef nonnull align 8 dereferenceable(56) %0, i64 noundef %5, i32 noundef %7)
  store ptr getelementptr inbounds ({ [9 x ptr] }, ptr @_ZTVN4LIEF5MachO13ThreadCommandE, i64 0, i32 0, i64 2), ptr %0, align 8
  %8 = getelementptr inbounds i8, ptr %0, i64 56
  %9 = getelementptr inbounds i8, ptr %1, i64 8
  %10 = load i32, ptr %9, align 4
  store i32 %10, ptr %8, align 8
  %11 = getelementptr inbounds i8, ptr %0, i64 60
  %12 = getelementptr inbounds i8, ptr %1, i64 12
  %13 = load i32, ptr %12, align 4
  store i32 %13, ptr %11, align 4
  %14 = getelementptr inbounds i8, ptr %0, i64 64
  store i32 %2, ptr %14, align 8
  %15 = getelementptr inbounds i8, ptr %0, i64 72
  tail call void @llvm.memset.p0.i64(ptr noundef nonnull align 8 dereferenceable(24) %15, i8 0, i64 24, i1 false)
  ret void
}